; Function Attrs: mustprogress uwtable
define dso_local void @_ZN3net14QuicSpdyStream7OnCloseEv(ptr noundef nonnull align 8 dereferenceable(664) %this) unnamed_addr #0 align 2 {
entry:
  tail call void @_ZN3net18ReliableQuicStream7OnCloseEv(ptr noundef nonnull align 8 dereferenceable(377) %this)
  %visitor_ = getelementptr inbounds i8, ptr %this, i64 392
  %0 = load ptr, ptr %visitor_, align 8
  %tobool.not = icmp eq ptr %0, null
  br i1 %tobool.not, label %if.end, label %if.then

if.then:                                          ; preds = %entry
  store ptr null, ptr %visitor_, align 8
  %vtable = load ptr, ptr %0, align 8
  %1 = load ptr, ptr %vtable, align 8
  tail call void %1(ptr noundef nonnull align 8 dereferenceable(8) %0, ptr noundef nonnull %this)
  br label %if.end

if.end:                                           ; preds = %if.then, %entry
  ret void
}